target datalayout = "e-m:e-p270:32:32-p271:32:32-p272:64:64-i64:64-i128:128-f80:128-n8:16:32:64-S128"
target triple = "x86_64-pc-linux-gnu"

%struct.VP8Decoder = type { i32, i32, ptr, %struct.VP8BitReader, i32, %struct.VP8FrameHeader, %struct.VP8PictureHeader, %struct.VP8FilterHeader, %struct.VP8SegmentHeader, %struct.WebPWorker, i32, i32, i32, %struct.VP8ThreadContext, i32, i32, i32, i32, i32, i32, i32, [8 x %struct.VP8BitReader], i32, %struct.VP8Random, [4 x %struct.VP8QuantMatrix], %struct.VP8Proba, i32, i8, ptr, [4 x i8], ptr, ptr, ptr, ptr, ptr, ptr, ptr, i32, i32, ptr, i64, i32, i32, ptr, i32, [4 x [2 x %struct.VP8FInfo]], ptr, ptr, i64, i32, ptr, ptr, ptr, i32 }
%struct.VP8BitReader = type { i64, i32, i32, ptr, ptr, ptr, i32 }
%struct.VP8FrameHeader = type { i8, i8, i8, i32 }
%struct.VP8PictureHeader = type { i16, i16, i8, i8, i8, i8 }
%struct.VP8FilterHeader = type { i32, i32, i32, i32, [4 x i32], [4 x i32] }
%struct.VP8SegmentHeader = type { i32, i32, i32, [4 x i8], [4 x i8] }
%struct.WebPWorker = type { ptr, i32, ptr, ptr, ptr, i32 }
%struct.VP8ThreadContext = type { i32, i32, i32, ptr, ptr, %struct.VP8Io }
%struct.VP8Io = type { i32, i32, i32, i32, i32, ptr, ptr, ptr, i32, i32, ptr, ptr, ptr, ptr, i32, i64, ptr, i32, i32, i32, i32, i32, i32, i32, i32, i32, ptr }
%struct.VP8Random = type { i32, i32, [55 x i32], i32 }
%struct.VP8QuantMatrix = type { [2 x i32], [2 x i32], [2 x i32], i32, i32 }
%struct.VP8Proba = type { [3 x i8], [4 x [8 x %struct.VP8BandProbas]], [4 x [17 x ptr]] }
%struct.VP8BandProbas = type { [3 x [11 x i8]] }
%struct.VP8FInfo = type { i8, i8, i8, i8 }

; Function Attrs: nounwind uwtable
define internal i32 @ParsePartitions(ptr noundef %0, ptr noundef %1, i64 noundef %2) #0 {
  %4 = alloca i32, align 4
  %5 = alloca ptr, align 8
  %6 = alloca ptr, align 8
  %7 = alloca i64, align 8
  %8 = alloca ptr, align 8
  %9 = alloca ptr, align 8
  %10 = alloca ptr, align 8
  %11 = alloca ptr, align 8
  %12 = alloca i64, align 8
  %13 = alloca i64, align 8
  %14 = alloca i64, align 8
  %15 = alloca i32, align 4
  %16 = alloca i64, align 8
  store ptr %0, ptr %5, align 8, !tbaa !10
  store ptr %1, ptr %6, align 8, !tbaa !37
  store i64 %2, ptr %7, align 8, !tbaa !38
  call void @llvm.lifetime.start.p0(i64 8, ptr %8) #8
  %17 = load ptr, ptr %5, align 8, !tbaa !10
  %18 = getelementptr inbounds nuw %struct.VP8Decoder, ptr %17, i32 0, i32 3
  store ptr %18, ptr %8, align 8, !tbaa !66
  call void @llvm.lifetime.start.p0(i64 8, ptr %9) #8
  %19 = load ptr, ptr %6, align 8, !tbaa !37
  store ptr %19, ptr %9, align 8, !tbaa !37
  call void @llvm.lifetime.start.p0(i64 8, ptr %10) #8
  %20 = load ptr, ptr %6, align 8, !tbaa !37
  %21 = load i64, ptr %7, align 8, !tbaa !38
  %22 = getelementptr inbounds nuw i8, ptr %20, i64 %21
  store ptr %22, ptr %10, align 8, !tbaa !37
  call void @llvm.lifetime.start.p0(i64 8, ptr %11) #8
  call void @llvm.lifetime.start.p0(i64 8, ptr %12) #8
  %23 = load i64, ptr %7, align 8, !tbaa !38
  store i64 %23, ptr %12, align 8, !tbaa !38
  call void @llvm.lifetime.start.p0(i64 8, ptr %13) #8
  call void @llvm.lifetime.start.p0(i64 8, ptr %14) #8
  %24 = load ptr, ptr %8, align 8, !tbaa !66
  %25 = call i32 @VP8GetValue(ptr noundef %24, i32 noundef 2)
  %26 = shl i32 1, %25
  %27 = sub nsw i32 %26, 1
  %28 = load ptr, ptr %5, align 8, !tbaa !10
  %29 = getelementptr inbounds nuw %struct.VP8Decoder, ptr %28, i32 0, i32 20
  store i32 %27, ptr %29, align 8, !tbaa !30
  %30 = load ptr, ptr %5, align 8, !tbaa !10
  %31 = getelementptr inbounds nuw %struct.VP8Decoder, ptr %30, i32 0, i32 20
  %32 = load i32, ptr %31, align 8, !tbaa !30
  %33 = zext i32 %32 to i64
  store i64 %33, ptr %13, align 8, !tbaa !38
  %34 = load i64, ptr %7, align 8, !tbaa !38
  %35 = load i64, ptr %13, align 8, !tbaa !38
  %36 = mul i64 3, %35
  %37 = icmp ult i64 %34, %36
  br i1 %37, label %38, label %39

38:                                               ; preds = %3
  store i32 7, ptr %4, align 4
  store i32 1, ptr %15, align 4
  br label %112

39:                                               ; preds = %3
  %40 = load ptr, ptr %6, align 8, !tbaa !37
  %41 = load i64, ptr %13, align 8, !tbaa !38
  %42 = mul i64 %41, 3
  %43 = getelementptr inbounds nuw i8, ptr %40, i64 %42
  store ptr %43, ptr %11, align 8, !tbaa !37
  %44 = load i64, ptr %13, align 8, !tbaa !38
  %45 = mul i64 %44, 3
  %46 = load i64, ptr %12, align 8, !tbaa !38
  %47 = sub i64 %46, %45
  store i64 %47, ptr %12, align 8, !tbaa !38
  store i64 0, ptr %14, align 8, !tbaa !38
  br label %48

48:                                               ; preds = %91, %39
  %49 = load i64, ptr %14, align 8, !tbaa !38
  %50 = load i64, ptr %13, align 8, !tbaa !38
  %51 = icmp ult i64 %49, %50
  br i1 %51, label %52, label %94

52:                                               ; preds = %48
  call void @llvm.lifetime.start.p0(i64 8, ptr %16) #8
  %53 = load ptr, ptr %9, align 8, !tbaa !37
  %54 = getelementptr inbounds i8, ptr %53, i64 0
  %55 = load i8, ptr %54, align 1, !tbaa !39
  %56 = zext i8 %55 to i32
  %57 = load ptr, ptr %9, align 8, !tbaa !37
  %58 = getelementptr inbounds i8, ptr %57, i64 1
  %59 = load i8, ptr %58, align 1, !tbaa !39
  %60 = zext i8 %59 to i32
  %61 = shl i32 %60, 8
  %62 = or i32 %56, %61
  %63 = load ptr, ptr %9, align 8, !tbaa !37
  %64 = getelementptr inbounds i8, ptr %63, i64 2
  %65 = load i8, ptr %64, align 1, !tbaa !39
  %66 = zext i8 %65 to i32
  %67 = shl i32 %66, 16
  %68 = or i32 %62, %67
  %69 = sext i32 %68 to i64
  store i64 %69, ptr %16, align 8, !tbaa !38
  %70 = load i64, ptr %16, align 8, !tbaa !38
  %71 = load i64, ptr %12, align 8, !tbaa !38
  %72 = icmp ugt i64 %70, %71
  br i1 %72, label %73, label %75

73:                                               ; preds = %52
  %74 = load i64, ptr %12, align 8, !tbaa !38
  store i64 %74, ptr %16, align 8, !tbaa !38
  br label %75

75:                                               ; preds = %73, %52
  %76 = load ptr, ptr %5, align 8, !tbaa !10
  %77 = getelementptr inbounds nuw %struct.VP8Decoder, ptr %76, i32 0, i32 21
  %78 = getelementptr inbounds [8 x %struct.VP8BitReader], ptr %77, i64 0, i64 0
  %79 = load i64, ptr %14, align 8, !tbaa !38
  %80 = getelementptr inbounds nuw %struct.VP8BitReader, ptr %78, i64 %79
  %81 = load ptr, ptr %11, align 8, !tbaa !37
  %82 = load i64, ptr %16, align 8, !tbaa !38
  call void @VP8InitBitReader(ptr noundef %80, ptr noundef %81, i64 noundef %82)
  %83 = load i64, ptr %16, align 8, !tbaa !38
  %84 = load ptr, ptr %11, align 8, !tbaa !37
  %85 = getelementptr inbounds nuw i8, ptr %84, i64 %83
  store ptr %85, ptr %11, align 8, !tbaa !37
  %86 = load i64, ptr %16, align 8, !tbaa !38
  %87 = load i64, ptr %12, align 8, !tbaa !38
  %88 = sub i64 %87, %86
  store i64 %88, ptr %12, align 8, !tbaa !38
  %89 = load ptr, ptr %9, align 8, !tbaa !37
  %90 = getelementptr inbounds i8, ptr %89, i64 3
  store ptr %90, ptr %9, align 8, !tbaa !37
  call void @llvm.lifetime.end.p0(i64 8, ptr %16) #8
  br label %91

91:                                               ; preds = %75
  %92 = load i64, ptr %14, align 8, !tbaa !38
  %93 = add i64 %92, 1
  store i64 %93, ptr %14, align 8, !tbaa !38
  br label %48, !llvm.loop !85

94:                                               ; preds = %48
  %95 = load ptr, ptr %5, align 8, !tbaa !10
  %96 = getelementptr inbounds nuw %struct.VP8Decoder, ptr %95, i32 0, i32 21
  %97 = getelementptr inbounds [8 x %struct.VP8BitReader], ptr %96, i64 0, i64 0
  %98 = load i64, ptr %13, align 8, !tbaa !38
  %99 = getelementptr inbounds nuw %struct.VP8BitReader, ptr %97, i64 %98
  %100 = load ptr, ptr %11, align 8, !tbaa !37
  %101 = load i64, ptr %12, align 8, !tbaa !38
  call void @VP8InitBitReader(ptr noundef %99, ptr noundef %100, i64 noundef %101)
  %102 = load ptr, ptr %11, align 8, !tbaa !37
  %103 = load ptr, ptr %10, align 8, !tbaa !37
  %104 = icmp ult ptr %102, %103
  br i1 %104, label %105, label %106

105:                                              ; preds = %94
  store i32 0, ptr %4, align 4
  store i32 1, ptr %15, align 4
  br label %112

106:                                              ; preds = %94
  %107 = load ptr, ptr %5, align 8, !tbaa !10
  %108 = getelementptr inbounds nuw %struct.VP8Decoder, ptr %107, i32 0, i32 4
  %109 = load i32, ptr %108, align 8, !tbaa !86
  %110 = icmp ne i32 %109, 0
  %111 = select i1 %110, i32 5, i32 7
  store i32 %111, ptr %4, align 4
  store i32 1, ptr %15, align 4
  br label %112

112:                                              ; preds = %106, %105, %38
  call void @llvm.lifetime.end.p0(i64 8, ptr %14) #8
  call void @llvm.lifetime.end.p0(i64 8, ptr %13) #8
  call void @llvm.lifetime.end.p0(i64 8, ptr %12) #8
  call void @llvm.lifetime.end.p0(i64 8, ptr %11) #8
  call void @llvm.lifetime.end.p0(i64 8, ptr %10) #8
  call void @llvm.lifetime.end.p0(i64 8, ptr %9) #8
  call void @llvm.lifetime.end.p0(i64 8, ptr %8) #8
  %113 = load i32, ptr %4, align 4
  ret i32 %113
}