; Function Attrs: nounwind uwtable
define internal fastcc range(i32 0, 8) i32 @ParsePartitions(ptr noundef nonnull %0, ptr noundef %1, i64 noundef %2) unnamed_addr #3 {
  %4 = getelementptr inbounds nuw i8, ptr %0, i64 16
  %5 = getelementptr inbounds nuw i8, ptr %1, i64 %2
  %6 = tail call i32 @VP8GetValue(ptr noundef nonnull %4, i32 noundef 2) #13
  %notmask = shl nsw i32 -1, %6
  %7 = xor i32 %notmask, -1
  %8 = getelementptr inbounds nuw i8, ptr %0, i64 432
  store i32 %7, ptr %8, align 8, !tbaa !27
  %9 = zext nneg i32 %7 to i64
  %10 = mul nuw nsw i64 %9, 3
  %11 = icmp ult i64 %2, %10
  br i1 %11, label %36, label %12

12:                                               ; preds = %3
  %13 = getelementptr inbounds nuw i8, ptr %1, i64 %10
  %14 = sub nuw i64 %2, %10
  %.not53 = icmp eq i32 %6, 0
  br i1 %.not53, label %._crit_edge, label %.lr.ph

.lr.ph:                                           ; preds = %12
  %15 = getelementptr inbounds nuw i8, ptr %0, i64 440
  %umax = tail call i64 @llvm.umax.i64(i64 %9, i64 1)
  br label %16

16:                                               ; preds = %.lr.ph, %16
  %.03951 = phi i64 [ 0, %.lr.ph ], [ %28, %16 ]
  %.04150 = phi i64 [ %14, %.lr.ph ], [ %26, %16 ]
  %.04249 = phi ptr [ %13, %.lr.ph ], [ %25, %16 ]
  %.04348 = phi ptr [ %1, %.lr.ph ], [ %27, %16 ]
  %17 = load i16, ptr %.04348, align 1
  %18 = zext i16 %17 to i64
  %19 = getelementptr inbounds nuw i8, ptr %.04348, i64 2
  %20 = load i8, ptr %19, align 1, !tbaa !31
  %21 = zext i8 %20 to i64
  %22 = shl nuw nsw i64 %21, 16
  %23 = or disjoint i64 %22, %18
  %spec.select = tail call i64 @llvm.umin.i64(i64 %23, i64 %.04150)
  %24 = getelementptr inbounds nuw %struct.VP8BitReader, ptr %15, i64 %.03951
  tail call void @VP8InitBitReader(ptr noundef nonnull %24, ptr noundef %.04249, i64 noundef %spec.select) #13
  %25 = getelementptr inbounds nuw i8, ptr %.04249, i64 %spec.select
  %26 = sub i64 %.04150, %spec.select
  %27 = getelementptr inbounds nuw i8, ptr %.04348, i64 3
  %28 = add nuw nsw i64 %.03951, 1
  %exitcond.not = icmp eq i64 %28, %umax
  br i1 %exitcond.not, label %._crit_edge, label %16, !llvm.loop !74

._crit_edge:                                      ; preds = %16, %12
  %.042.lcssa = phi ptr [ %13, %12 ], [ %25, %16 ]
  %.041.lcssa = phi i64 [ %14, %12 ], [ %26, %16 ]
  %29 = getelementptr inbounds nuw i8, ptr %0, i64 440
  %30 = getelementptr inbounds nuw %struct.VP8BitReader, ptr %29, i64 %9
  tail call void @VP8InitBitReader(ptr noundef nonnull %30, ptr noundef %.042.lcssa, i64 noundef %.041.lcssa) #13
  %31 = icmp ult ptr %.042.lcssa, %5
  br i1 %31, label %36, label %32

32:                                               ; preds = %._crit_edge
  %33 = getelementptr inbounds nuw i8, ptr %0, i64 64
  %34 = load i32, ptr %33, align 8, !tbaa !75
  %.not = icmp eq i32 %34, 0
  %35 = select i1 %.not, i32 7, i32 5
  br label %36

36:                                               ; preds = %._crit_edge, %3, %32
  %.040 = phi i32 [ %35, %32 ], [ 7, %3 ], [ 0, %._crit_edge ]
  ret i32 %.040
}